SF:/Users/ocdbytes/Desktop/Projects🧰/btcxvm-study/bee-vm/src/errors.rs
FN:3,_RNvXs_NtCsgXWjqKnuZNK_6bee_vm6errorsNtB4_12OpCodeErrorsNtNtCs2ke5FKHNm4X_4core3fmt7Display3fmt
FN:17,_RNvXs4_NtCsgXWjqKnuZNK_6bee_vm6errorsNtB5_17InputParsingErrorNtNtCs2ke5FKHNm4X_4core3fmt7Display3fmt
FNDA:0,_RNvXs_NtCsgXWjqKnuZNK_6bee_vm6errorsNtB4_12OpCodeErrorsNtNtCs2ke5FKHNm4X_4core3fmt7Display3fmt
FNDA:0,_RNvXs4_NtCsgXWjqKnuZNK_6bee_vm6errorsNtB5_17InputParsingErrorNtNtCs2ke5FKHNm4X_4core3fmt7Display3fmt
FNF:2
FNH:0
DA:3,0
DA:17,0
BRF:0
BRH:0
LF:2
LH:0
end_of_record
SF:/Users/ocdbytes/Desktop/Projects🧰/btcxvm-study/bee-vm/src/main.rs
FN:42,_RNvCsgXWjqKnuZNK_6bee_vm4main
FNDA:0,_RNvCsgXWjqKnuZNK_6bee_vm4main
FNF:1
FNH:0
DA:42,0
DA:43,0
DA:44,0
DA:45,0
DA:46,0
DA:48,0
DA:50,0
DA:51,0
BRF:0
BRH:0
LF:8
LH:0
end_of_record
SF:/Users/ocdbytes/Desktop/Projects🧰/btcxvm-study/bee-vm/src/opcodes/arithmetic_ops/abs.rs
FN:28,_RNvNtNtNtNtCsgXWjqKnuZNK_6bee_vm7opcodes14arithmetic_ops3abs15test_opcode_abs8test_abs
FN:28,_RNvNtNtNtNtNtCsgXWjqKnuZNK_6bee_vm7opcodes14arithmetic_ops3abs15test_opcode_abs8test_abss_6case_1
FN:28,_RNvNtNtNtNtNtCsgXWjqKnuZNK_6bee_vm7opcodes14arithmetic_ops3abs15test_opcode_abs8test_abss_6case_2
FN:11,_RNvNtNtNtCsgXWjqKnuZNK_6bee_vm7opcodes14arithmetic_ops3abs3abs
FNDA:2,_RNvNtNtNtNtCsgXWjqKnuZNK_6bee_vm7opcodes14arithmetic_ops3abs15test_opcode_abs8test_abs
FNDA:1,_RNvNtNtNtNtNtCsgXWjqKnuZNK_6bee_vm7opcodes14arithmetic_ops3abs15test_opcode_abs8test_abss_6case_1
FNDA:1,_RNvNtNtNtNtNtCsgXWjqKnuZNK_6bee_vm7opcodes14arithmetic_ops3abs15test_opcode_abs8test_abss_6case_2
FNDA:2,_RNvNtNtNtCsgXWjqKnuZNK_6bee_vm7opcodes14arithmetic_ops3abs3abs
FNF:2
FNH:2
DA:11,2
DA:12,2
DA:13,2
DA:14,0
DA:15,0
DA:17,2
DA:18,2
DA:19,2
DA:20,2
DA:28,2
BRF:0
BRH:0
LF:10
LH:8
end_of_record
SF:/Users/ocdbytes/Desktop/Projects🧰/btcxvm-study/bee-vm/src/opcodes/arithmetic_ops/add.rs
FN:14,_RNvNtNtNtCsgXWjqKnuZNK_6bee_vm7opcodes14arithmetic_ops3add3add
FN:35,_RNvNtNtNtNtCsgXWjqKnuZNK_6bee_vm7opcodes14arithmetic_ops3add15test_opcode_add8test_add
FN:35,_RNvNtNtNtNtNtCsgXWjqKnuZNK_6bee_vm7opcodes14arithmetic_ops3add15test_opcode_add8test_adds_6case_1
FN:35,_RNvNtNtNtNtNtCsgXWjqKnuZNK_6bee_vm7opcodes14arithmetic_ops3add15test_opcode_add8test_adds_6case_2
FNDA:2,_RNvNtNtNtCsgXWjqKnuZNK_6bee_vm7opcodes14arithmetic_ops3add3add
FNDA:2,_RNvNtNtNtNtCsgXWjqKnuZNK_6bee_vm7opcodes14arithmetic_ops3add15test_opcode_add8test_add
FNDA:1,_RNvNtNtNtNtNtCsgXWjqKnuZNK_6bee_vm7opcodes14arithmetic_ops3add15test_opcode_add8test_adds_6case_1
FNDA:1,_RNvNtNtNtNtNtCsgXWjqKnuZNK_6bee_vm7opcodes14arithmetic_ops3add15test_opcode_add8test_adds_6case_2
FNF:2
FNH:2
DA:14,2
DA:15,2
DA:16,2
DA:17,0
DA:18,0
DA:19,2
DA:20,2
DA:21,0
DA:22,0
DA:24,2
DA:25,2
DA:26,2
DA:27,2
DA:35,2
BRF:0
BRH:0
LF:14
LH:10
end_of_record
SF:/Users/ocdbytes/Desktop/Projects🧰/btcxvm-study/bee-vm/src/opcodes/arithmetic_ops/add1.rs
FN:11,_RNvNtNtNtCsgXWjqKnuZNK_6bee_vm7opcodes14arithmetic_ops4add15add_1
FN:27,_RNvNtNtNtNtCsgXWjqKnuZNK_6bee_vm7opcodes14arithmetic_ops4add117test_opcode_add_110test_add_1
FN:27,_RNvNtNtNtNtNtCsgXWjqKnuZNK_6bee_vm7opcodes14arithmetic_ops4add117test_opcode_add_110test_add_1s_6case_1
FN:27,_RNvNtNtNtNtNtCsgXWjqKnuZNK_6bee_vm7opcodes14arithmetic_ops4add117test_opcode_add_110test_add_1s_6case_2
FNDA:2,_RNvNtNtNtCsgXWjqKnuZNK_6bee_vm7opcodes14arithmetic_ops4add15add_1
FNDA:2,_RNvNtNtNtNtCsgXWjqKnuZNK_6bee_vm7opcodes14arithmetic_ops4add117test_opcode_add_110test_add_1
FNDA:1,_RNvNtNtNtNtNtCsgXWjqKnuZNK_6bee_vm7opcodes14arithmetic_ops4add117test_opcode_add_110test_add_1s_6case_1
FNDA:1,_RNvNtNtNtNtNtCsgXWjqKnuZNK_6bee_vm7opcodes14arithmetic_ops4add117test_opcode_add_110test_add_1s_6case_2
FNF:2
FNH:2
DA:11,2
DA:12,2
DA:13,2
DA:14,0
DA:15,0
DA:16,2
DA:17,2
DA:18,2
DA:19,2
DA:27,2
BRF:0
BRH:0
LF:10
LH:8
end_of_record
SF:/Users/ocdbytes/Desktop/Projects🧰/btcxvm-study/bee-vm/src/opcodes/arithmetic_ops/bool_and.rs
FN:14,_RNvNtNtNtCsgXWjqKnuZNK_6bee_vm7opcodes14arithmetic_ops8bool_and8bool_and
FN:39,_RNvNtNtNtNtCsgXWjqKnuZNK_6bee_vm7opcodes14arithmetic_ops8bool_and20test_opcode_bool_and13test_bool_and
FN:39,_RNvNtNtNtNtNtCsgXWjqKnuZNK_6bee_vm7opcodes14arithmetic_ops8bool_and20test_opcode_bool_and13test_bool_ands_6case_1
FN:39,_RNvNtNtNtNtNtCsgXWjqKnuZNK_6bee_vm7opcodes14arithmetic_ops8bool_and20test_opcode_bool_and13test_bool_ands_6case_2
FNDA:2,_RNvNtNtNtCsgXWjqKnuZNK_6bee_vm7opcodes14arithmetic_ops8bool_and8bool_and
FNDA:2,_RNvNtNtNtNtCsgXWjqKnuZNK_6bee_vm7opcodes14arithmetic_ops8bool_and20test_opcode_bool_and13test_bool_and
FNDA:1,_RNvNtNtNtNtNtCsgXWjqKnuZNK_6bee_vm7opcodes14arithmetic_ops8bool_and20test_opcode_bool_and13test_bool_ands_6case_1
FNDA:1,_RNvNtNtNtNtNtCsgXWjqKnuZNK_6bee_vm7opcodes14arithmetic_ops8bool_and20test_opcode_bool_and13test_bool_ands_6case_2
FNF:2
FNH:2
DA:14,2
DA:15,2
DA:16,2
DA:17,0
DA:18,0
DA:19,2
DA:20,2
DA:21,0
DA:22,0
DA:24,2
DA:25,1
DA:26,1
DA:27,1
DA:28,1
DA:30,2
DA:31,2
DA:39,2
BRF:0
BRH:0
LF:17
LH:13
end_of_record
SF:/Users/ocdbytes/Desktop/Projects🧰/btcxvm-study/bee-vm/src/opcodes/arithmetic_ops/bool_or.rs
FN:14,_RNvNtNtNtCsgXWjqKnuZNK_6bee_vm7opcodes14arithmetic_ops7bool_or7bool_or
FN:39,_RNvNtNtNtNtNtCsgXWjqKnuZNK_6bee_vm7opcodes14arithmetic_ops7bool_or19test_opcode_bool_or12test_bool_ors_6case_1
FN:39,_RNvNtNtNtNtNtCsgXWjqKnuZNK_6bee_vm7opcodes14arithmetic_ops7bool_or19test_opcode_bool_or12test_bool_ors_6case_2
FN:39,_RNvNtNtNtNtNtCsgXWjqKnuZNK_6bee_vm7opcodes14arithmetic_ops7bool_or19test_opcode_bool_or12test_bool_ors_6case_3
FN:39,_RNvNtNtNtNtCsgXWjqKnuZNK_6bee_vm7opcodes14arithmetic_ops7bool_or19test_opcode_bool_or12test_bool_or
FNDA:3,_RNvNtNtNtCsgXWjqKnuZNK_6bee_vm7opcodes14arithmetic_ops7bool_or7bool_or
FNDA:1,_RNvNtNtNtNtNtCsgXWjqKnuZNK_6bee_vm7opcodes14arithmetic_ops7bool_or19test_opcode_bool_or12test_bool_ors_6case_1
FNDA:1,_RNvNtNtNtNtNtCsgXWjqKnuZNK_6bee_vm7opcodes14arithmetic_ops7bool_or19test_opcode_bool_or12test_bool_ors_6case_2
FNDA:1,_RNvNtNtNtNtNtCsgXWjqKnuZNK_6bee_vm7opcodes14arithmetic_ops7bool_or19test_opcode_bool_or12test_bool_ors_6case_3
FNDA:3,_RNvNtNtNtNtCsgXWjqKnuZNK_6bee_vm7opcodes14arithmetic_ops7bool_or19test_opcode_bool_or12test_bool_or
FNF:2
FNH:2
DA:14,3
DA:15,3
DA:16,3
DA:17,0
DA:18,0
DA:19,3
DA:20,3
DA:21,0
DA:22,0
DA:24,3
DA:25,2
DA:26,2
DA:27,1
DA:28,1
DA:30,3
DA:31,3
DA:39,3
BRF:0
BRH:0
LF:17
LH:13
end_of_record
SF:/Users/ocdbytes/Desktop/Projects🧰/btcxvm-study/bee-vm/src/opcodes/arithmetic_ops/greater_than.rs
FN:14,_RNvNtNtNtCsgXWjqKnuZNK_6bee_vm7opcodes14arithmetic_ops12greater_than12greater_than
FN:47,_RNvNtNtNtNtNtCsgXWjqKnuZNK_6bee_vm7opcodes14arithmetic_ops12greater_than24test_opcode_greater_than17test_greater_thans_6case_1
FN:47,_RNvNtNtNtNtNtCsgXWjqKnuZNK_6bee_vm7opcodes14arithmetic_ops12greater_than24test_opcode_greater_than17test_greater_thans_6case_2
FN:47,_RNvNtNtNtNtCsgXWjqKnuZNK_6bee_vm7opcodes14arithmetic_ops12greater_than24test_opcode_greater_than17test_greater_than
FNDA:2,_RNvNtNtNtCsgXWjqKnuZNK_6bee_vm7opcodes14arithmetic_ops12greater_than12greater_than
FNDA:1,_RNvNtNtNtNtNtCsgXWjqKnuZNK_6bee_vm7opcodes14arithmetic_ops12greater_than24test_opcode_greater_than17test_greater_thans_6case_1
FNDA:1,_RNvNtNtNtNtNtCsgXWjqKnuZNK_6bee_vm7opcodes14arithmetic_ops12greater_than24test_opcode_greater_than17test_greater_thans_6case_2
FNDA:2,_RNvNtNtNtNtCsgXWjqKnuZNK_6bee_vm7opcodes14arithmetic_ops12greater_than24test_opcode_greater_than17test_greater_than
FNF:2
FNH:2
DA:14,2
DA:15,2
DA:16,2
DA:18,0
DA:19,0
DA:20,0
DA:22,0
DA:23,2
DA:24,2
DA:26,0
DA:27,0
DA:28,0
DA:30,0
DA:32,2
DA:33,1
DA:34,1
DA:35,1
DA:36,1
DA:38,2
DA:39,2
DA:47,2
BRF:0
BRH:0
LF:21
LH:13
end_of_record
SF:/Users/ocdbytes/Desktop/Projects🧰/btcxvm-study/bee-vm/src/opcodes/arithmetic_ops/greater_than_or_equal.rs
FN:47,_RNvNtNtNtNtCsgXWjqKnuZNK_6bee_vm7opcodes14arithmetic_ops21greater_than_or_equal33test_opcode_greater_than_or_equal26test_greater_than_or_equal
FN:14,_RNvNtNtNtCsgXWjqKnuZNK_6bee_vm7opcodes14arithmetic_ops21greater_than_or_equal21greater_than_or_equal
FN:47,_RNvNtNtNtNtNtCsgXWjqKnuZNK_6bee_vm7opcodes14arithmetic_ops21greater_than_or_equal33test_opcode_greater_than_or_equal26test_greater_than_or_equals_6case_1
FN:47,_RNvNtNtNtNtNtCsgXWjqKnuZNK_6bee_vm7opcodes14arithmetic_ops21greater_than_or_equal33test_opcode_greater_than_or_equal26test_greater_than_or_equals_6case_2
FN:47,_RNvNtNtNtNtNtCsgXWjqKnuZNK_6bee_vm7opcodes14arithmetic_ops21greater_than_or_equal33test_opcode_greater_than_or_equal26test_greater_than_or_equals_6case_3
FNDA:3,_RNvNtNtNtNtCsgXWjqKnuZNK_6bee_vm7opcodes14arithmetic_ops21greater_than_or_equal33test_opcode_greater_than_or_equal26test_greater_than_or_equal
FNDA:3,_RNvNtNtNtCsgXWjqKnuZNK_6bee_vm7opcodes14arithmetic_ops21greater_than_or_equal21greater_than_or_equal
FNDA:1,_RNvNtNtNtNtNtCsgXWjqKnuZNK_6bee_vm7opcodes14arithmetic_ops21greater_than_or_equal33test_opcode_greater_than_or_equal26test_greater_than_or_equals_6case_1
FNDA:1,_RNvNtNtNtNtNtCsgXWjqKnuZNK_6bee_vm7opcodes14arithmetic_ops21greater_than_or_equal33test_opcode_greater_than_or_equal26test_greater_than_or_equals_6case_2
FNDA:1,_RNvNtNtNtNtNtCsgXWjqKnuZNK_6bee_vm7opcodes14arithmetic_ops21greater_than_or_equal33test_opcode_greater_than_or_equal26test_greater_than_or_equals_6case_3
FNF:2
FNH:2
DA:14,3
DA:15,3
DA:16,3
DA:18,0
DA:19,0
DA:20,0
DA:22,0
DA:23,3
DA:24,3
DA:26,0
DA:27,0
DA:28,0
DA:30,0
DA:32,3
DA:33,2
DA:34,2
DA:35,1
DA:36,1
DA:38,3
DA:39,3
DA:47,3
BRF:0
BRH:0
LF:21
LH:13
end_of_record
SF:/Users/ocdbytes/Desktop/Projects🧰/btcxvm-study/bee-vm/src/opcodes/arithmetic_ops/less_than.rs
FN:47,_RNvNtNtNtNtCsgXWjqKnuZNK_6bee_vm7opcodes14arithmetic_ops9less_than21test_opcode_less_than14test_less_than
FN:47,_RNvNtNtNtNtNtCsgXWjqKnuZNK_6bee_vm7opcodes14arithmetic_ops9less_than21test_opcode_less_than14test_less_thans_6case_1
FN:47,_RNvNtNtNtNtNtCsgXWjqKnuZNK_6bee_vm7opcodes14arithmetic_ops9less_than21test_opcode_less_than14test_less_thans_6case_2
FN:14,_RNvNtNtNtCsgXWjqKnuZNK_6bee_vm7opcodes14arithmetic_ops9less_than9less_than
FNDA:2,_RNvNtNtNtNtCsgXWjqKnuZNK_6bee_vm7opcodes14arithmetic_ops9less_than21test_opcode_less_than14test_less_than
FNDA:1,_RNvNtNtNtNtNtCsgXWjqKnuZNK_6bee_vm7opcodes14arithmetic_ops9less_than21test_opcode_less_than14test_less_thans_6case_1
FNDA:1,_RNvNtNtNtNtNtCsgXWjqKnuZNK_6bee_vm7opcodes14arithmetic_ops9less_than21test_opcode_less_than14test_less_thans_6case_2
FNDA:2,_RNvNtNtNtCsgXWjqKnuZNK_6bee_vm7opcodes14arithmetic_ops9less_than9less_than
FNF:2
FNH:2
DA:14,2
DA:15,2
DA:16,2
DA:18,0
DA:19,0
DA:20,0
DA:22,0
DA:23,2
DA:24,2
DA:26,0
DA:27,0
DA:28,0
DA:30,0
DA:32,2
DA:33,1
DA:34,1
DA:35,1
DA:36,1
DA:38,2
DA:39,2
DA:47,2
BRF:0
BRH:0
LF:21
LH:13
end_of_record
SF:/Users/ocdbytes/Desktop/Projects🧰/btcxvm-study/bee-vm/src/opcodes/arithmetic_ops/less_than_or_equal.rs
FN:14,_RNvNtNtNtCsgXWjqKnuZNK_6bee_vm7opcodes14arithmetic_ops18less_than_or_equal18less_than_or_equal
FN:47,_RNvNtNtNtNtNtCsgXWjqKnuZNK_6bee_vm7opcodes14arithmetic_ops18less_than_or_equal30test_opcode_less_than_or_equal23test_less_than_or_equals_6case_1
FN:47,_RNvNtNtNtNtNtCsgXWjqKnuZNK_6bee_vm7opcodes14arithmetic_ops18less_than_or_equal30test_opcode_less_than_or_equal23test_less_than_or_equals_6case_2
FN:47,_RNvNtNtNtNtNtCsgXWjqKnuZNK_6bee_vm7opcodes14arithmetic_ops18less_than_or_equal30test_opcode_less_than_or_equal23test_less_than_or_equals_6case_3
FN:47,_RNvNtNtNtNtCsgXWjqKnuZNK_6bee_vm7opcodes14arithmetic_ops18less_than_or_equal30test_opcode_less_than_or_equal23test_less_than_or_equal
FNDA:3,_RNvNtNtNtCsgXWjqKnuZNK_6bee_vm7opcodes14arithmetic_ops18less_than_or_equal18less_than_or_equal
FNDA:1,_RNvNtNtNtNtNtCsgXWjqKnuZNK_6bee_vm7opcodes14arithmetic_ops18less_than_or_equal30test_opcode_less_than_or_equal23test_less_than_or_equals_6case_1
FNDA:1,_RNvNtNtNtNtNtCsgXWjqKnuZNK_6bee_vm7opcodes14arithmetic_ops18less_than_or_equal30test_opcode_less_than_or_equal23test_less_than_or_equals_6case_2
FNDA:1,_RNvNtNtNtNtNtCsgXWjqKnuZNK_6bee_vm7opcodes14arithmetic_ops18less_than_or_equal30test_opcode_less_than_or_equal23test_less_than_or_equals_6case_3
FNDA:3,_RNvNtNtNtNtCsgXWjqKnuZNK_6bee_vm7opcodes14arithmetic_ops18less_than_or_equal30test_opcode_less_than_or_equal23test_less_than_or_equal
FNF:2
FNH:2
DA:14,3
DA:15,3
DA:16,3
DA:18,0
DA:19,0
DA:20,0
DA:22,0
DA:23,3
DA:24,3
DA:26,0
DA:27,0
DA:28,0
DA:30,0
DA:32,3
DA:33,2
DA:34,2
DA:35,1
DA:36,1
DA:38,3
DA:39,3
DA:47,3
BRF:0
BRH:0
LF:21
LH:13
end_of_record
SF:/Users/ocdbytes/Desktop/Projects🧰/btcxvm-study/bee-vm/src/opcodes/arithmetic_ops/max.rs
FN:36,_RNvNtNtNtNtCsgXWjqKnuZNK_6bee_vm7opcodes14arithmetic_ops3max15test_opcode_max8test_max
FN:36,_RNvNtNtNtNtNtCsgXWjqKnuZNK_6bee_vm7opcodes14arithmetic_ops3max15test_opcode_max8test_maxs_6case_1
FN:36,_RNvNtNtNtNtNtCsgXWjqKnuZNK_6bee_vm7opcodes14arithmetic_ops3max15test_opcode_max8test_maxs_6case_2
FN:36,_RNvNtNtNtNtNtCsgXWjqKnuZNK_6bee_vm7opcodes14arithmetic_ops3max15test_opcode_max8test_maxs_6case_3
FN:15,_RNvNtNtNtCsgXWjqKnuZNK_6bee_vm7opcodes14arithmetic_ops3max3max
FNDA:3,_RNvNtNtNtNtCsgXWjqKnuZNK_6bee_vm7opcodes14arithmetic_ops3max15test_opcode_max8test_max
FNDA:1,_RNvNtNtNtNtNtCsgXWjqKnuZNK_6bee_vm7opcodes14arithmetic_ops3max15test_opcode_max8test_maxs_6case_1
FNDA:1,_RNvNtNtNtNtNtCsgXWjqKnuZNK_6bee_vm7opcodes14arithmetic_ops3max15test_opcode_max8test_maxs_6case_2
FNDA:1,_RNvNtNtNtNtNtCsgXWjqKnuZNK_6bee_vm7opcodes14arithmetic_ops3max15test_opcode_max8test_maxs_6case_3
FNDA:3,_RNvNtNtNtCsgXWjqKnuZNK_6bee_vm7opcodes14arithmetic_ops3max3max
FNF:2
FNH:2
DA:15,3
DA:16,3
DA:17,3
DA:18,0
DA:19,0
DA:20,3
DA:21,3
DA:22,0
DA:23,0
DA:25,3
DA:26,3
DA:27,3
DA:28,3
DA:36,3
BRF:0
BRH:0
LF:14
LH:10
end_of_record
SF:/Users/ocdbytes/Desktop/Projects🧰/btcxvm-study/bee-vm/src/opcodes/arithmetic_ops/min.rs
FN:36,_RNvNtNtNtNtCsgXWjqKnuZNK_6bee_vm7opcodes14arithmetic_ops3min15test_opcode_min8test_min
FN:36,_RNvNtNtNtNtNtCsgXWjqKnuZNK_6bee_vm7opcodes14arithmetic_ops3min15test_opcode_min8test_mins_6case_1
FN:36,_RNvNtNtNtNtNtCsgXWjqKnuZNK_6bee_vm7opcodes14arithmetic_ops3min15test_opcode_min8test_mins_6case_2
FN:36,_RNvNtNtNtNtNtCsgXWjqKnuZNK_6bee_vm7opcodes14arithmetic_ops3min15test_opcode_min8test_mins_6case_3
FN:15,_RNvNtNtNtCsgXWjqKnuZNK_6bee_vm7opcodes14arithmetic_ops3min3min
FNDA:3,_RNvNtNtNtNtCsgXWjqKnuZNK_6bee_vm7opcodes14arithmetic_ops3min15test_opcode_min8test_min
FNDA:1,_RNvNtNtNtNtNtCsgXWjqKnuZNK_6bee_vm7opcodes14arithmetic_ops3min15test_opcode_min8test_mins_6case_1
FNDA:1,_RNvNtNtNtNtNtCsgXWjqKnuZNK_6bee_vm7opcodes14arithmetic_ops3min15test_opcode_min8test_mins_6case_2
FNDA:1,_RNvNtNtNtNtNtCsgXWjqKnuZNK_6bee_vm7opcodes14arithmetic_ops3min15test_opcode_min8test_mins_6case_3
FNDA:3,_RNvNtNtNtCsgXWjqKnuZNK_6bee_vm7opcodes14arithmetic_ops3min3min
FNF:2
FNH:2
DA:15,3
DA:16,3
DA:17,3
DA:18,0
DA:19,0
DA:20,3
DA:21,3
DA:22,0
DA:23,0
DA:25,3
DA:26,3
DA:27,3
DA:28,3
DA:36,3
BRF:0
BRH:0
LF:14
LH:10
end_of_record
SF:/Users/ocdbytes/Desktop/Projects🧰/btcxvm-study/bee-vm/src/opcodes/arithmetic_ops/negate.rs
FN:29,_RNvNtNtNtNtCsgXWjqKnuZNK_6bee_vm7opcodes14arithmetic_ops6negate18test_opcode_negate11test_negate
FN:29,_RNvNtNtNtNtNtCsgXWjqKnuZNK_6bee_vm7opcodes14arithmetic_ops6negate18test_opcode_negate11test_negates_6case_1
FN:29,_RNvNtNtNtNtNtCsgXWjqKnuZNK_6bee_vm7opcodes14arithmetic_ops6negate18test_opcode_negate11test_negates_6case_2
FN:11,_RNvNtNtNtCsgXWjqKnuZNK_6bee_vm7opcodes14arithmetic_ops6negate6negate
FNDA:2,_RNvNtNtNtNtCsgXWjqKnuZNK_6bee_vm7opcodes14arithmetic_ops6negate18test_opcode_negate11test_negate
FNDA:1,_RNvNtNtNtNtNtCsgXWjqKnuZNK_6bee_vm7opcodes14arithmetic_ops6negate18test_opcode_negate11test_negates_6case_1
FNDA:1,_RNvNtNtNtNtNtCsgXWjqKnuZNK_6bee_vm7opcodes14arithmetic_ops6negate18test_opcode_negate11test_negates_6case_2
FNDA:2,_RNvNtNtNtCsgXWjqKnuZNK_6bee_vm7opcodes14arithmetic_ops6negate6negate
FNF:2
FNH:2
DA:11,2
DA:12,2
DA:13,2
DA:14,2
DA:15,0
DA:18,2
DA:19,2
DA:20,2
DA:21,2
DA:29,2
BRF:0
BRH:0
LF:10
LH:9
end_of_record
SF:/Users/ocdbytes/Desktop/Projects🧰/btcxvm-study/bee-vm/src/opcodes/arithmetic_ops/not.rs
FN:35,_RNvNtNtNtNtNtCsgXWjqKnuZNK_6bee_vm7opcodes14arithmetic_ops3not15test_opcode_not8test_nots_6case_1
FN:35,_RNvNtNtNtNtNtCsgXWjqKnuZNK_6bee_vm7opcodes14arithmetic_ops3not15test_opcode_not8test_nots_6case_2
FN:35,_RNvNtNtNtNtNtCsgXWjqKnuZNK_6bee_vm7opcodes14arithmetic_ops3not15test_opcode_not8test_nots_6case_3
FN:10,_RNvNtNtNtCsgXWjqKnuZNK_6bee_vm7opcodes14arithmetic_ops3not3not
FN:35,_RNvNtNtNtNtCsgXWjqKnuZNK_6bee_vm7opcodes14arithmetic_ops3not15test_opcode_not8test_not
FNDA:1,_RNvNtNtNtNtNtCsgXWjqKnuZNK_6bee_vm7opcodes14arithmetic_ops3not15test_opcode_not8test_nots_6case_1
FNDA:1,_RNvNtNtNtNtNtCsgXWjqKnuZNK_6bee_vm7opcodes14arithmetic_ops3not15test_opcode_not8test_nots_6case_2
FNDA:1,_RNvNtNtNtNtNtCsgXWjqKnuZNK_6bee_vm7opcodes14arithmetic_ops3not15test_opcode_not8test_nots_6case_3
FNDA:3,_RNvNtNtNtCsgXWjqKnuZNK_6bee_vm7opcodes14arithmetic_ops3not3not
FNDA:3,_RNvNtNtNtNtCsgXWjqKnuZNK_6bee_vm7opcodes14arithmetic_ops3not15test_opcode_not8test_not
FNF:2
FNH:2
DA:10,3
DA:11,3
DA:12,3
DA:13,3
DA:14,3
DA:15,3
DA:16,1
DA:17,2
DA:18,1
DA:19,1
DA:20,1
DA:21,1
DA:23,0
DA:26,3
DA:27,3
DA:35,3
BRF:0
BRH:0
LF:16
LH:15
end_of_record
SF:/Users/ocdbytes/Desktop/Projects🧰/btcxvm-study/bee-vm/src/opcodes/arithmetic_ops/num_equal.rs
FN:47,_RNvNtNtNtNtNtCsgXWjqKnuZNK_6bee_vm7opcodes14arithmetic_ops9num_equal21test_opcode_num_equal14test_num_equals_6case_1
FN:47,_RNvNtNtNtNtNtCsgXWjqKnuZNK_6bee_vm7opcodes14arithmetic_ops9num_equal21test_opcode_num_equal14test_num_equals_6case_2
FN:47,_RNvNtNtNtNtNtCsgXWjqKnuZNK_6bee_vm7opcodes14arithmetic_ops9num_equal21test_opcode_num_equal14test_num_equals_6case_3
FN:47,_RNvNtNtNtNtCsgXWjqKnuZNK_6bee_vm7opcodes14arithmetic_ops9num_equal21test_opcode_num_equal14test_num_equal
FN:14,_RNvNtNtNtCsgXWjqKnuZNK_6bee_vm7opcodes14arithmetic_ops9num_equal9num_equal
FNDA:1,_RNvNtNtNtNtNtCsgXWjqKnuZNK_6bee_vm7opcodes14arithmetic_ops9num_equal21test_opcode_num_equal14test_num_equals_6case_1
FNDA:1,_RNvNtNtNtNtNtCsgXWjqKnuZNK_6bee_vm7opcodes14arithmetic_ops9num_equal21test_opcode_num_equal14test_num_equals_6case_2
FNDA:1,_RNvNtNtNtNtNtCsgXWjqKnuZNK_6bee_vm7opcodes14arithmetic_ops9num_equal21test_opcode_num_equal14test_num_equals_6case_3
FNDA:3,_RNvNtNtNtNtCsgXWjqKnuZNK_6bee_vm7opcodes14arithmetic_ops9num_equal21test_opcode_num_equal14test_num_equal
FNDA:3,_RNvNtNtNtCsgXWjqKnuZNK_6bee_vm7opcodes14arithmetic_ops9num_equal9num_equal
FNF:2
FNH:2
DA:14,3
DA:15,3
DA:16,3
DA:18,0
DA:19,0
DA:20,0
DA:22,0
DA:23,3
DA:24,3
DA:26,0
DA:27,0
DA:28,0
DA:30,0
DA:32,3
DA:33,1
DA:34,2
DA:35,2
DA:36,2
DA:38,3
DA:39,3
DA:47,3
BRF:0
BRH:0
LF:21
LH:13
end_of_record
SF:/Users/ocdbytes/Desktop/Projects🧰/btcxvm-study/bee-vm/src/opcodes/arithmetic_ops/num_not_equal.rs
FN:47,_RNvNtNtNtNtNtCsgXWjqKnuZNK_6bee_vm7opcodes14arithmetic_ops13num_not_equal25test_opcode_num_not_equal18test_num_not_equals_6case_1
FN:47,_RNvNtNtNtNtNtCsgXWjqKnuZNK_6bee_vm7opcodes14arithmetic_ops13num_not_equal25test_opcode_num_not_equal18test_num_not_equals_6case_2
FN:47,_RNvNtNtNtNtNtCsgXWjqKnuZNK_6bee_vm7opcodes14arithmetic_ops13num_not_equal25test_opcode_num_not_equal18test_num_not_equals_6case_3
FN:14,_RNvNtNtNtCsgXWjqKnuZNK_6bee_vm7opcodes14arithmetic_ops13num_not_equal13num_not_equal
FN:47,_RNvNtNtNtNtCsgXWjqKnuZNK_6bee_vm7opcodes14arithmetic_ops13num_not_equal25test_opcode_num_not_equal18test_num_not_equal
FNDA:1,_RNvNtNtNtNtNtCsgXWjqKnuZNK_6bee_vm7opcodes14arithmetic_ops13num_not_equal25test_opcode_num_not_equal18test_num_not_equals_6case_1
FNDA:1,_RNvNtNtNtNtNtCsgXWjqKnuZNK_6bee_vm7opcodes14arithmetic_ops13num_not_equal25test_opcode_num_not_equal18test_num_not_equals_6case_2
FNDA:1,_RNvNtNtNtNtNtCsgXWjqKnuZNK_6bee_vm7opcodes14arithmetic_ops13num_not_equal25test_opcode_num_not_equal18test_num_not_equals_6case_3
FNDA:3,_RNvNtNtNtCsgXWjqKnuZNK_6bee_vm7opcodes14arithmetic_ops13num_not_equal13num_not_equal
FNDA:3,_RNvNtNtNtNtCsgXWjqKnuZNK_6bee_vm7opcodes14arithmetic_ops13num_not_equal25test_opcode_num_not_equal18test_num_not_equal
FNF:2
FNH:2
DA:14,3
DA:15,3
DA:16,3
DA:18,0
DA:19,0
DA:20,0
DA:22,0
DA:23,3
DA:24,3
DA:26,0
DA:27,0
DA:28,0
DA:30,0
DA:32,3
DA:33,2
DA:34,2
DA:35,1
DA:36,1
DA:38,3
DA:39,3
DA:47,3
BRF:0
BRH:0
LF:21
LH:13
end_of_record
SF:/Users/ocdbytes/Desktop/Projects🧰/btcxvm-study/bee-vm/src/opcodes/arithmetic_ops/op_false.rs
FN:16,_RNvNtNtNtNtCsgXWjqKnuZNK_6bee_vm7opcodes14arithmetic_ops8op_false20test_opcode_op_false13test_op_false
FN:16,_RNvNtNtNtNtNtCsgXWjqKnuZNK_6bee_vm7opcodes14arithmetic_ops8op_false20test_opcode_op_false13test_op_falses_6case_1
FN:6,_RNvNtNtNtCsgXWjqKnuZNK_6bee_vm7opcodes14arithmetic_ops8op_false8op_false
FNDA:1,_RNvNtNtNtNtCsgXWjqKnuZNK_6bee_vm7opcodes14arithmetic_ops8op_false20test_opcode_op_false13test_op_false
FNDA:1,_RNvNtNtNtNtNtCsgXWjqKnuZNK_6bee_vm7opcodes14arithmetic_ops8op_false20test_opcode_op_false13test_op_falses_6case_1
FNDA:1,_RNvNtNtNtCsgXWjqKnuZNK_6bee_vm7opcodes14arithmetic_ops8op_false8op_false
FNF:2
FNH:2
DA:6,1
DA:7,1
DA:8,1
DA:16,1
BRF:0
BRH:0
LF:4
LH:4
end_of_record
SF:/Users/ocdbytes/Desktop/Projects🧰/btcxvm-study/bee-vm/src/opcodes/arithmetic_ops/op_true.rs
FN:6,_RNvNtNtNtCsgXWjqKnuZNK_6bee_vm7opcodes14arithmetic_ops7op_true7op_true
FN:16,_RNvNtNtNtNtCsgXWjqKnuZNK_6bee_vm7opcodes14arithmetic_ops7op_true19test_opcode_op_true12test_op_true
FN:16,_RNvNtNtNtNtNtCsgXWjqKnuZNK_6bee_vm7opcodes14arithmetic_ops7op_true19test_opcode_op_true12test_op_trues_6case_1
FNDA:1,_RNvNtNtNtCsgXWjqKnuZNK_6bee_vm7opcodes14arithmetic_ops7op_true7op_true
FNDA:1,_RNvNtNtNtNtCsgXWjqKnuZNK_6bee_vm7opcodes14arithmetic_ops7op_true19test_opcode_op_true12test_op_true
FNDA:1,_RNvNtNtNtNtNtCsgXWjqKnuZNK_6bee_vm7opcodes14arithmetic_ops7op_true19test_opcode_op_true12test_op_trues_6case_1
FNF:2
FNH:2
DA:6,1
DA:7,1
DA:8,1
DA:16,1
BRF:0
BRH:0
LF:4
LH:4
end_of_record
SF:/Users/ocdbytes/Desktop/Projects🧰/btcxvm-study/bee-vm/src/opcodes/arithmetic_ops/sub.rs
FN:14,_RNvNtNtNtCsgXWjqKnuZNK_6bee_vm7opcodes14arithmetic_ops3sub3sub
FN:35,_RNvNtNtNtNtCsgXWjqKnuZNK_6bee_vm7opcodes14arithmetic_ops3sub15test_opcode_sub8test_sub
FN:35,_RNvNtNtNtNtNtCsgXWjqKnuZNK_6bee_vm7opcodes14arithmetic_ops3sub15test_opcode_sub8test_subs_6case_1
FN:35,_RNvNtNtNtNtNtCsgXWjqKnuZNK_6bee_vm7opcodes14arithmetic_ops3sub15test_opcode_sub8test_subs_6case_2
FNDA:2,_RNvNtNtNtCsgXWjqKnuZNK_6bee_vm7opcodes14arithmetic_ops3sub3sub
FNDA:2,_RNvNtNtNtNtCsgXWjqKnuZNK_6bee_vm7opcodes14arithmetic_ops3sub15test_opcode_sub8test_sub
FNDA:1,_RNvNtNtNtNtNtCsgXWjqKnuZNK_6bee_vm7opcodes14arithmetic_ops3sub15test_opcode_sub8test_subs_6case_1
FNDA:1,_RNvNtNtNtNtNtCsgXWjqKnuZNK_6bee_vm7opcodes14arithmetic_ops3sub15test_opcode_sub8test_subs_6case_2
FNF:2
FNH:2
DA:14,2
DA:15,2
DA:16,2
DA:17,0
DA:18,0
DA:19,2
DA:20,2
DA:21,0
DA:22,0
DA:24,2
DA:25,2
DA:26,2
DA:27,2
DA:35,2
BRF:0
BRH:0
LF:14
LH:10
end_of_record
SF:/Users/ocdbytes/Desktop/Projects🧰/btcxvm-study/bee-vm/src/opcodes/arithmetic_ops/sub1.rs
FN:11,_RNvNtNtNtCsgXWjqKnuZNK_6bee_vm7opcodes14arithmetic_ops4sub15sub_1
FN:33,_RNvNtNtNtNtNtCsgXWjqKnuZNK_6bee_vm7opcodes14arithmetic_ops4sub117test_opcode_sub_110test_sub_1s_6case_1
FN:33,_RNvNtNtNtNtNtCsgXWjqKnuZNK_6bee_vm7opcodes14arithmetic_ops4sub117test_opcode_sub_110test_sub_1s_6case_2
FN:33,_RNvNtNtNtNtCsgXWjqKnuZNK_6bee_vm7opcodes14arithmetic_ops4sub117test_opcode_sub_110test_sub_1
FNDA:2,_RNvNtNtNtCsgXWjqKnuZNK_6bee_vm7opcodes14arithmetic_ops4sub15sub_1
FNDA:1,_RNvNtNtNtNtNtCsgXWjqKnuZNK_6bee_vm7opcodes14arithmetic_ops4sub117test_opcode_sub_110test_sub_1s_6case_1
FNDA:1,_RNvNtNtNtNtNtCsgXWjqKnuZNK_6bee_vm7opcodes14arithmetic_ops4sub117test_opcode_sub_110test_sub_1s_6case_2
FNDA:2,_RNvNtNtNtNtCsgXWjqKnuZNK_6bee_vm7opcodes14arithmetic_ops4sub117test_opcode_sub_110test_sub_1
FNF:2
FNH:2
DA:11,2
DA:12,2
DA:13,2
DA:14,0
DA:15,0
DA:16,2
DA:17,2
DA:18,0
DA:19,0
DA:21,2
DA:22,2
DA:23,2
DA:24,2
DA:25,2
DA:33,2
BRF:0
BRH:0
LF:15
LH:11
end_of_record
SF:/Users/ocdbytes/Desktop/Projects🧰/btcxvm-study/bee-vm/src/opcodes/arithmetic_ops/verify.rs
FN:26,_RNvNtNtNtNtNtCsgXWjqKnuZNK_6bee_vm7opcodes14arithmetic_ops6verify18test_opcode_verify11test_verifys_6case_1
FN:26,_RNvNtNtNtNtNtCsgXWjqKnuZNK_6bee_vm7opcodes14arithmetic_ops6verify18test_opcode_verify11test_verifys_6case_2
FN:26,_RNvNtNtNtNtCsgXWjqKnuZNK_6bee_vm7opcodes14arithmetic_ops6verify18test_opcode_verify11test_verify
FN:6,_RNvNtNtNtCsgXWjqKnuZNK_6bee_vm7opcodes14arithmetic_ops6verify6verify
FNDA:1,_RNvNtNtNtNtNtCsgXWjqKnuZNK_6bee_vm7opcodes14arithmetic_ops6verify18test_opcode_verify11test_verifys_6case_1
FNDA:1,_RNvNtNtNtNtNtCsgXWjqKnuZNK_6bee_vm7opcodes14arithmetic_ops6verify18test_opcode_verify11test_verifys_6case_2
FNDA:2,_RNvNtNtNtNtCsgXWjqKnuZNK_6bee_vm7opcodes14arithmetic_ops6verify18test_opcode_verify11test_verify
FNDA:2,_RNvNtNtNtCsgXWjqKnuZNK_6bee_vm7opcodes14arithmetic_ops6verify6verify
FNF:2
FNH:2
DA:6,2
DA:7,2
DA:8,2
DA:9,0
DA:10,0
DA:12,2
DA:13,1
DA:14,1
DA:15,1
DA:16,1
DA:17,2
DA:26,2
BRF:0
BRH:0
LF:12
LH:10
end_of_record
SF:/Users/ocdbytes/Desktop/Projects🧰/btcxvm-study/bee-vm/src/opcodes/arithmetic_ops/within.rs
FN:48,_RNvNtNtNtNtCsgXWjqKnuZNK_6bee_vm7opcodes14arithmetic_ops6within18test_opcode_within11test_within
FN:48,_RNvNtNtNtNtNtCsgXWjqKnuZNK_6bee_vm7opcodes14arithmetic_ops6within18test_opcode_within11test_withins_6case_1
FN:48,_RNvNtNtNtNtNtCsgXWjqKnuZNK_6bee_vm7opcodes14arithmetic_ops6within18test_opcode_within11test_withins_6case_2
FN:19,_RNvNtNtNtCsgXWjqKnuZNK_6bee_vm7opcodes14arithmetic_ops6within6within
FNDA:2,_RNvNtNtNtNtCsgXWjqKnuZNK_6bee_vm7opcodes14arithmetic_ops6within18test_opcode_within11test_within
FNDA:1,_RNvNtNtNtNtNtCsgXWjqKnuZNK_6bee_vm7opcodes14arithmetic_ops6within18test_opcode_within11test_withins_6case_1
FNDA:1,_RNvNtNtNtNtNtCsgXWjqKnuZNK_6bee_vm7opcodes14arithmetic_ops6within18test_opcode_within11test_withins_6case_2
FNDA:2,_RNvNtNtNtCsgXWjqKnuZNK_6bee_vm7opcodes14arithmetic_ops6within6within
FNF:2
FNH:2
DA:19,2
DA:20,2
DA:21,2
DA:22,0
DA:23,0
DA:24,2
DA:25,2
DA:26,0
DA:27,0
DA:28,2
DA:29,2
DA:30,0
DA:31,0
DA:33,2
DA:34,1
DA:35,1
DA:36,1
DA:37,1
DA:39,2
DA:40,2
DA:48,2
BRF:0
BRH:0
LF:21
LH:15
end_of_record
SF:/Users/ocdbytes/Desktop/Projects🧰/btcxvm-study/bee-vm/src/opcodes/new_num.rs
FN:6,_RNvNtNtCsgXWjqKnuZNK_6bee_vm7opcodes7new_num7new_num
FNDA:0,_RNvNtNtCsgXWjqKnuZNK_6bee_vm7opcodes7new_num7new_num
FNF:1
FNH:0
DA:6,0
DA:7,0
DA:8,0
DA:9,0
DA:10,0
DA:11,0
DA:12,0
DA:13,0
DA:14,0
DA:15,0
DA:16,0
DA:17,0
DA:18,0
DA:19,0
DA:23,0
DA:24,0
BRF:0
BRH:0
LF:16
LH:0
end_of_record
SF:/Users/ocdbytes/Desktop/Projects🧰/btcxvm-study/bee-vm/src/opcodes/stack_ops/depth.rs
FN:10,_RNvNtNtNtCsgXWjqKnuZNK_6bee_vm7opcodes9stack_ops5depth5depth
FNDA:0,_RNvNtNtNtCsgXWjqKnuZNK_6bee_vm7opcodes9stack_ops5depth5depth
FNF:1
FNH:0
DA:10,0
DA:11,0
DA:12,0
DA:13,0
DA:14,0
BRF:0
BRH:0
LF:5
LH:0
end_of_record
SF:/Users/ocdbytes/Desktop/Projects🧰/btcxvm-study/bee-vm/src/opcodes/stack_ops/drop.rs
FN:12,_RNvNtNtNtCsgXWjqKnuZNK_6bee_vm7opcodes9stack_ops4drop7op_drop
FNDA:0,_RNvNtNtNtCsgXWjqKnuZNK_6bee_vm7opcodes9stack_ops4drop7op_drop
FNF:1
FNH:0
DA:12,0
DA:13,0
DA:14,0
DA:15,0
DA:16,0
DA:17,0
BRF:0
BRH:0
LF:6
LH:0
end_of_record
SF:/Users/ocdbytes/Desktop/Projects🧰/btcxvm-study/bee-vm/src/opcodes/stack_ops/dup.rs
FN:14,_RNvNtNtNtCsgXWjqKnuZNK_6bee_vm7opcodes9stack_ops3dup3dup
FNDA:0,_RNvNtNtNtCsgXWjqKnuZNK_6bee_vm7opcodes9stack_ops3dup3dup
FNF:1
FNH:0
DA:14,0
DA:15,0
DA:17,0
DA:18,0
DA:19,0
DA:20,0
DA:24,0
DA:25,0
DA:26,0
DA:27,0
DA:28,0
DA:29,0
DA:31,0
DA:32,0
BRF:0
BRH:0
LF:14
LH:0
end_of_record
SF:/Users/ocdbytes/Desktop/Projects🧰/btcxvm-study/bee-vm/src/opcodes/stack_ops/from_alt_stack.rs
FN:18,_RNvNtNtNtCsgXWjqKnuZNK_6bee_vm7opcodes9stack_ops14from_alt_stack14from_alt_stack
FNDA:0,_RNvNtNtNtCsgXWjqKnuZNK_6bee_vm7opcodes9stack_ops14from_alt_stack14from_alt_stack
FNF:1
FNH:0
DA:18,0
DA:19,0
DA:20,0
DA:22,0
DA:23,0
DA:24,0
DA:26,0
DA:28,0
DA:29,0
DA:30,0
DA:31,0
BRF:0
BRH:0
LF:11
LH:0
end_of_record
SF:/Users/ocdbytes/Desktop/Projects🧰/btcxvm-study/bee-vm/src/opcodes/stack_ops/if_dup.rs
FN:11,_RNvNtNtNtCsgXWjqKnuZNK_6bee_vm7opcodes9stack_ops6if_dup6if_dup
FNDA:0,_RNvNtNtNtCsgXWjqKnuZNK_6bee_vm7opcodes9stack_ops6if_dup6if_dup
FNF:1
FNH:0
DA:11,0
DA:12,0
DA:13,0
DA:14,0
DA:15,0
DA:17,0
DA:18,0
DA:19,0
DA:21,0
DA:22,0
DA:23,0
DA:24,0
BRF:0
BRH:0
LF:12
LH:0
end_of_record
SF:/Users/ocdbytes/Desktop/Projects🧰/btcxvm-study/bee-vm/src/opcodes/stack_ops/nip.rs
FN:11,_RNvNtNtNtCsgXWjqKnuZNK_6bee_vm7opcodes9stack_ops3nip3nip
FNDA:0,_RNvNtNtNtCsgXWjqKnuZNK_6bee_vm7opcodes9stack_ops3nip3nip
FNF:1
FNH:0
DA:11,0
DA:12,0
DA:13,0
DA:14,0
DA:15,0
DA:17,0
DA:18,0
DA:19,0
DA:20,0
DA:21,0
BRF:0
BRH:0
LF:10
LH:0
end_of_record
SF:/Users/ocdbytes/Desktop/Projects🧰/btcxvm-study/bee-vm/src/opcodes/stack_ops/over.rs
FN:10,_RNvNtNtNtCsgXWjqKnuZNK_6bee_vm7opcodes9stack_ops4over4over
FN:21,_RNvNtNtNtCsgXWjqKnuZNK_6bee_vm7opcodes9stack_ops4over6over_2
FNDA:0,_RNvNtNtNtCsgXWjqKnuZNK_6bee_vm7opcodes9stack_ops4over4over
FNDA:0,_RNvNtNtNtCsgXWjqKnuZNK_6bee_vm7opcodes9stack_ops4over6over_2
FNF:2
FNH:0
DA:10,0
DA:11,0
DA:12,0
DA:13,0
DA:15,0
DA:16,0
DA:21,0
DA:22,0
DA:23,0
DA:24,0
DA:26,0
DA:27,0
DA:28,0
DA:30,0
DA:31,0
BRF:0
BRH:0
LF:15
LH:0
end_of_record
SF:/Users/ocdbytes/Desktop/Projects🧰/btcxvm-study/bee-vm/src/opcodes/stack_ops/pick.rs
FN:11,_RNvNtNtNtCsgXWjqKnuZNK_6bee_vm7opcodes9stack_ops4pick4pick
FNDA:0,_RNvNtNtNtCsgXWjqKnuZNK_6bee_vm7opcodes9stack_ops4pick4pick
FNF:1
FNH:0
DA:11,0
DA:12,0
DA:13,0
DA:14,0
DA:15,0
DA:17,0
DA:18,0
DA:20,0
DA:21,0
DA:22,0
DA:23,0
DA:27,0
DA:28,0
BRF:0
BRH:0
LF:13
LH:0
end_of_record
SF:/Users/ocdbytes/Desktop/Projects🧰/btcxvm-study/bee-vm/src/opcodes/stack_ops/roll.rs
FN:11,_RNvNtNtNtCsgXWjqKnuZNK_6bee_vm7opcodes9stack_ops4roll4roll
FNDA:0,_RNvNtNtNtCsgXWjqKnuZNK_6bee_vm7opcodes9stack_ops4roll4roll
FNF:1
FNH:0
DA:11,0
DA:12,0
DA:13,0
DA:14,0
DA:15,0
DA:16,0
DA:17,0
DA:18,0
DA:19,0
DA:20,0
DA:21,0
DA:23,0
DA:24,0
DA:25,0
DA:26,0
DA:27,0
DA:28,0
DA:29,0
DA:30,0
DA:31,0
DA:32,0
DA:33,0
DA:35,0
DA:36,0
BRF:0
BRH:0
LF:24
LH:0
end_of_record
SF:/Users/ocdbytes/Desktop/Projects🧰/btcxvm-study/bee-vm/src/opcodes/stack_ops/rot.rs
FN:10,_RNvNtNtNtCsgXWjqKnuZNK_6bee_vm7opcodes9stack_ops3rot3rot
FN:34,_RNvNtNtNtCsgXWjqKnuZNK_6bee_vm7opcodes9stack_ops3rot5rot_2
FNDA:0,_RNvNtNtNtCsgXWjqKnuZNK_6bee_vm7opcodes9stack_ops3rot3rot
FNDA:0,_RNvNtNtNtCsgXWjqKnuZNK_6bee_vm7opcodes9stack_ops3rot5rot_2
FNF:2
FNH:0
DA:10,0
DA:11,0
DA:12,0
DA:13,0
DA:14,0
DA:15,0
DA:16,0
DA:17,0
DA:18,0
DA:19,0
DA:20,0
DA:21,0
DA:22,0
DA:23,0
DA:25,0
DA:26,0
DA:27,0
DA:28,0
DA:29,0
DA:34,0
DA:35,0
DA:36,0
DA:37,0
DA:38,0
DA:39,0
DA:40,0
DA:41,0
DA:42,0
DA:43,0
DA:44,0
DA:45,0
DA:46,0
DA:47,0
DA:49,0
DA:50,0
DA:51,0
DA:53,0
DA:54,0
DA:55,0
DA:56,0
BRF:0
BRH:0
LF:40
LH:0
end_of_record
SF:/Users/ocdbytes/Desktop/Projects🧰/btcxvm-study/bee-vm/src/opcodes/stack_ops/size.rs
FN:11,_RNvNtNtNtCsgXWjqKnuZNK_6bee_vm7opcodes9stack_ops4size4size
FNDA:0,_RNvNtNtNtCsgXWjqKnuZNK_6bee_vm7opcodes9stack_ops4size4size
FNF:1
FNH:0
DA:11,0
DA:12,0
DA:13,0
DA:14,0
DA:15,0
DA:16,0
DA:17,0
DA:18,0
DA:19,0
DA:20,0
DA:21,0
DA:22,0
DA:23,0
DA:25,0
DA:26,0
DA:27,0
DA:31,0
DA:32,0
BRF:0
BRH:0
LF:18
LH:0
end_of_record
SF:/Users/ocdbytes/Desktop/Projects🧰/btcxvm-study/bee-vm/src/opcodes/stack_ops/swap.rs
FN:10,_RNvNtNtNtCsgXWjqKnuZNK_6bee_vm7opcodes9stack_ops4swap4swap
FN:30,_RNvNtNtNtCsgXWjqKnuZNK_6bee_vm7opcodes9stack_ops4swap6swap_2
FNDA:0,_RNvNtNtNtCsgXWjqKnuZNK_6bee_vm7opcodes9stack_ops4swap4swap
FNDA:0,_RNvNtNtNtCsgXWjqKnuZNK_6bee_vm7opcodes9stack_ops4swap6swap_2
FNF:2
FNH:0
DA:10,0
DA:11,0
DA:12,0
DA:13,0
DA:14,0
DA:15,0
DA:16,0
DA:17,0
DA:18,0
DA:19,0
DA:20,0
DA:21,0
DA:22,0
DA:23,0
DA:24,0
DA:25,0
DA:30,0
DA:31,0
DA:32,0
DA:33,0
DA:34,0
DA:35,0
DA:36,0
DA:37,0
DA:38,0
DA:39,0
DA:40,0
DA:41,0
DA:42,0
DA:43,0
DA:44,0
DA:46,0
DA:47,0
DA:48,0
DA:49,0
DA:50,0
DA:51,0
DA:52,0
BRF:0
BRH:0
LF:38
LH:0
end_of_record
SF:/Users/ocdbytes/Desktop/Projects🧰/btcxvm-study/bee-vm/src/opcodes/stack_ops/to_alt_stack.rs
FN:18,_RNvNtNtNtCsgXWjqKnuZNK_6bee_vm7opcodes9stack_ops12to_alt_stack12to_alt_stack
FNDA:0,_RNvNtNtNtCsgXWjqKnuZNK_6bee_vm7opcodes9stack_ops12to_alt_stack12to_alt_stack
FNF:1
FNH:0
DA:18,0
DA:19,0
DA:20,0
DA:22,0
DA:23,0
DA:24,0
DA:26,0
DA:28,0
DA:29,0
DA:30,0
DA:31,0
BRF:0
BRH:0
LF:11
LH:0
end_of_record
SF:/Users/ocdbytes/Desktop/Projects🧰/btcxvm-study/bee-vm/src/opcodes/stack_ops/tuck.rs
FN:10,_RNvNtNtNtCsgXWjqKnuZNK_6bee_vm7opcodes9stack_ops4tuck4tuck
FNDA:0,_RNvNtNtNtCsgXWjqKnuZNK_6bee_vm7opcodes9stack_ops4tuck4tuck
FNF:1
FNH:0
DA:10,0
DA:11,0
DA:12,0
DA:13,0
DA:14,0
DA:15,0
DA:16,0
DA:17,0
DA:18,0
DA:19,0
DA:20,0
DA:21,0
DA:22,0
DA:23,0
DA:24,0
DA:26,0
DA:27,0
DA:28,0
DA:29,0
DA:30,0
DA:31,0
BRF:0
BRH:0
LF:21
LH:0
end_of_record
SF:/Users/ocdbytes/Desktop/Projects🧰/btcxvm-study/bee-vm/src/opcodes/utils.rs
FN:4,_RNvNtNtCsgXWjqKnuZNK_6bee_vm7opcodes5utils13string_to_i32
FN:12,_RNvNtNtCsgXWjqKnuZNK_6bee_vm7opcodes5utils17check_if_in_range
FN:28,_RNvNtNtCsgXWjqKnuZNK_6bee_vm7opcodes5utils17check_string_type
FN:30,_RNCNvNtNtCsgXWjqKnuZNK_6bee_vm7opcodes5utils17check_string_type0B7_
FN:34,_RNCNvNtNtCsgXWjqKnuZNK_6bee_vm7opcodes5utils17check_string_types_0B7_
FN:36,_RNCNvNtNtCsgXWjqKnuZNK_6bee_vm7opcodes5utils17check_string_types0_0B7_
FNDA:80,_RNvNtNtCsgXWjqKnuZNK_6bee_vm7opcodes5utils13string_to_i32
FNDA:0,_RNvNtNtCsgXWjqKnuZNK_6bee_vm7opcodes5utils17check_if_in_range
FNDA:0,_RNvNtNtCsgXWjqKnuZNK_6bee_vm7opcodes5utils17check_string_type
FNDA:0,_RNCNvNtNtCsgXWjqKnuZNK_6bee_vm7opcodes5utils17check_string_type0B7_
FNDA:0,_RNCNvNtNtCsgXWjqKnuZNK_6bee_vm7opcodes5utils17check_string_types_0B7_
FNDA:0,_RNCNvNtNtCsgXWjqKnuZNK_6bee_vm7opcodes5utils17check_string_types0_0B7_
FNF:6
FNH:1
DA:4,80
DA:5,80
DA:6,80
DA:7,0
DA:9,80
DA:12,0
DA:13,0
DA:14,0
DA:15,0
DA:17,0
DA:28,0
DA:29,0
DA:30,0
DA:31,0
DA:34,0
DA:35,0
DA:36,0
DA:37,0
DA:41,0
DA:43,0
BRF:0
BRH:0
LF:23
LH:4
end_of_record
SF:/Users/ocdbytes/Desktop/Projects🧰/btcxvm-study/bee-vm/src/opcodes/zero_not_equal.rs
FN:6,_RNvNtNtCsgXWjqKnuZNK_6bee_vm7opcodes14zero_not_equal14zero_not_equal
FNDA:0,_RNvNtNtCsgXWjqKnuZNK_6bee_vm7opcodes14zero_not_equal14zero_not_equal
FNF:1
FNH:0
DA:6,0
DA:7,0
DA:8,0
DA:10,0
DA:11,0
DA:12,0
DA:14,0
DA:16,0
DA:17,0
DA:18,0
DA:19,0
DA:20,0
DA:22,0
DA:23,0
BRF:0
BRH:0
LF:14
LH:0
end_of_record
SF:/Users/ocdbytes/Desktop/Projects🧰/btcxvm-study/bee-vm/src/processor/input.rs
FN:3,_RNvNtNtCsgXWjqKnuZNK_6bee_vm9processor5input11parse_input
FNDA:0,_RNvNtNtCsgXWjqKnuZNK_6bee_vm9processor5input11parse_input
FNF:1
FNH:0
DA:3,0
DA:4,0
DA:5,0
DA:6,0
DA:7,0
DA:8,0
DA:9,0
DA:10,0
DA:12,0
DA:13,0
DA:14,0
DA:15,0
DA:17,0
DA:18,0
BRF:0
BRH:0
LF:14
LH:0
end_of_record
SF:/Users/ocdbytes/Desktop/Projects🧰/btcxvm-study/bee-vm/src/stack/executor.rs
FN:42,_RNvNtNtCsgXWjqKnuZNK_6bee_vm5stack8executor12execute_code
FNDA:0,_RNvNtNtCsgXWjqKnuZNK_6bee_vm5stack8executor12execute_code
FNF:1
FNH:0
DA:42,0
DA:43,0
DA:44,0
DA:45,0
DA:47,0
DA:48,0
DA:49,0
DA:50,0
DA:51,0
DA:52,0
DA:53,0
DA:54,0
DA:55,0
DA:56,0
DA:57,0
DA:58,0
DA:59,0
DA:60,0
DA:63,0
DA:64,0
DA:65,0
DA:66,0
DA:69,0
DA:70,0
DA:71,0
DA:72,0
DA:75,0
DA:76,0
DA:77,0
DA:78,0
DA:81,0
DA:84,0
DA:85,0
DA:86,0
DA:89,0
DA:90,0
DA:92,0
DA:95,0
DA:96,0
DA:97,0
DA:98,0
DA:101,0
DA:102,0
DA:103,0
DA:104,0
DA:107,0
DA:108,0
DA:109,0
DA:110,0
DA:113,0
DA:114,0
DA:115,0
DA:116,0
DA:119,0
DA:120,0
DA:121,0
DA:122,0
DA:125,0
DA:126,0
DA:127,0
DA:128,0
DA:131,0
DA:132,0
DA:133,0
DA:134,0
DA:137,0
DA:138,0
DA:139,0
DA:140,0
DA:143,0
DA:144,0
DA:145,0
DA:146,0
DA:149,0
DA:150,0
DA:151,0
DA:152,0
DA:155,0
DA:156,0
DA:157,0
DA:158,0
DA:159,0
DA:162,0
DA:163,0
DA:164,0
DA:165,0
DA:168,0
DA:169,0
DA:170,0
DA:171,0
DA:174,0
DA:175,0
DA:176,0
DA:177,0
DA:180,0
DA:181,0
DA:182,0
DA:183,0
DA:186,0
DA:187,0
DA:188,0
DA:189,0
DA:192,0
DA:193,0
DA:194,0
DA:195,0
DA:198,0
DA:199,0
DA:200,0
DA:201,0
DA:208,0
DA:209,0
DA:210,0
DA:211,0
DA:214,0
DA:215,0
DA:216,0
DA:217,0
DA:220,0
DA:221,0
DA:222,0
DA:223,0
DA:226,0
DA:227,0
DA:228,0
DA:229,0
DA:232,0
DA:233,0
DA:234,0
DA:235,0
DA:238,0
DA:239,0
DA:240,0
DA:241,0
DA:244,0
DA:245,0
DA:246,0
DA:247,0
DA:250,0
DA:251,0
DA:252,0
DA:253,0
DA:256,0
DA:257,0
DA:258,0
DA:259,0
DA:262,0
DA:263,0
DA:264,0
DA:265,0
DA:268,0
DA:269,0
DA:270,0
DA:271,0
DA:274,0
DA:275,0
DA:276,0
DA:277,0
DA:280,0
DA:281,0
DA:282,0
DA:283,0
DA:286,0
DA:287,0
DA:288,0
DA:289,0
DA:292,0
DA:293,0
DA:294,0
DA:295,0
DA:298,0
DA:299,0
DA:300,0
DA:301,0
DA:304,0
DA:305,0
DA:306,0
DA:307,0
DA:310,0
DA:311,0
DA:312,0
DA:313,0
DA:316,0
DA:317,0
DA:318,0
DA:319,0
DA:322,0
DA:323,0
DA:324,0
DA:325,0
DA:328,0
DA:329,0
DA:330,0
DA:331,0
DA:334,0
DA:335,0
DA:336,0
DA:337,0
DA:338,0
DA:339,0
DA:340,0
DA:341,0
BRF:0
BRH:0
LF:202
LH:0
end_of_record
SF:/Users/ocdbytes/Desktop/Projects🧰/btcxvm-study/bee-vm/src/stack/executor_utils.rs
FN:2,_RNvNtNtCsgXWjqKnuZNK_6bee_vm5stack14executor_utils17is_numeric_string
FN:13,_RNvNtNtCsgXWjqKnuZNK_6bee_vm5stack14executor_utils11is_op_range
FNDA:0,_RNvNtNtCsgXWjqKnuZNK_6bee_vm5stack14executor_utils17is_numeric_string
FNDA:0,_RNvNtNtCsgXWjqKnuZNK_6bee_vm5stack14executor_utils11is_op_range
FNF:2
FNH:0
DA:2,0
DA:3,0
DA:4,0
DA:5,0
DA:6,0
DA:9,0
DA:10,0
DA:13,0
DA:14,0
DA:15,0
DA:16,0
DA:17,0
DA:18,0
DA:19,0
DA:20,0
BRF:0
BRH:0
LF:15
LH:0
end_of_record
SF:/Users/ocdbytes/Desktop/Projects🧰/btcxvm-study/bee-vm/src/stack/mod.rs
FN:60,_RNvNtNtCsgXWjqKnuZNK_6bee_vm5stack5testss_11pop_element
FN:71,_RNvNtNtCsgXWjqKnuZNK_6bee_vm5stack5testss_12push_element
FN:86,_RNvNtNtCsgXWjqKnuZNK_6bee_vm5stack5testss_8is_empty
FN:30,_RNvMNtCsgXWjqKnuZNK_6bee_vm5stackNtB2_5Stack8is_empty
FN:18,_RNvMNtCsgXWjqKnuZNK_6bee_vm5stackNtB2_5Stack3pop
FN:25,_RNvMNtCsgXWjqKnuZNK_6bee_vm5stackNtB2_5Stack4push
FN:39,_RNvMNtCsgXWjqKnuZNK_6bee_vm5stackNtB2_5Stack10stack_from
FN:11,_RNvMNtCsgXWjqKnuZNK_6bee_vm5stackNtB2_5Stack3new
FN:34,_RNvMNtCsgXWjqKnuZNK_6bee_vm5stackNtB2_5Stack17read_ele_from_top
FN:49,_RNvXs_NtCsgXWjqKnuZNK_6bee_vm5stackNtB4_5StackNtNtCs2ke5FKHNm4X_4core7default7Default7default
FNDA:1,_RNvNtNtCsgXWjqKnuZNK_6bee_vm5stack5testss_11pop_element
FNDA:1,_RNvNtNtCsgXWjqKnuZNK_6bee_vm5stack5testss_12push_element
FNDA:1,_RNvNtNtCsgXWjqKnuZNK_6bee_vm5stack5testss_8is_empty
FNDA:1,_RNvMNtCsgXWjqKnuZNK_6bee_vm5stackNtB2_5Stack8is_empty
FNDA:87,_RNvMNtCsgXWjqKnuZNK_6bee_vm5stackNtB2_5Stack3pop
FNDA:197,_RNvMNtCsgXWjqKnuZNK_6bee_vm5stackNtB2_5Stack4push
FNDA:96,_RNvMNtCsgXWjqKnuZNK_6bee_vm5stackNtB2_5Stack10stack_from
FNDA:99,_RNvMNtCsgXWjqKnuZNK_6bee_vm5stackNtB2_5Stack3new
FNDA:0,_RNvMNtCsgXWjqKnuZNK_6bee_vm5stackNtB2_5Stack17read_ele_from_top
FNDA:0,_RNvXs_NtCsgXWjqKnuZNK_6bee_vm5stackNtB4_5StackNtNtCs2ke5FKHNm4X_4core7default7Default7default
FNF:10
FNH:8
DA:11,99
DA:12,99
DA:13,99
DA:14,99
DA:15,99
DA:16,99
DA:18,87
DA:19,87
DA:20,87
DA:21,87
DA:22,87
DA:23,87
DA:25,197
DA:26,197
DA:27,197
DA:28,197
DA:30,1
DA:31,1
DA:32,1
DA:34,0
DA:35,0
DA:36,0
DA:39,96
DA:40,96
DA:41,239
DA:42,143
DA:43,143
DA:44,96
DA:45,96
DA:49,0
DA:50,0
DA:51,0
DA:60,1
DA:61,1
DA:62,1
DA:63,1
DA:64,1
DA:65,1
DA:66,1
DA:67,1
DA:68,1
DA:71,1
DA:72,1
DA:73,1
DA:74,1
DA:75,1
DA:76,1
DA:77,1
DA:78,1
DA:79,1
DA:80,1
DA:81,1
DA:82,1
DA:83,1
DA:86,1
DA:87,1
DA:88,1
DA:89,1
BRF:0
BRH:0
LF:58
LH:52
end_of_record
SF:/Users/ocdbytes/Desktop/Projects🧰/btcxvm-study/bee-vm/src/utils/mod.rs
FN:2,_RNvNtCsgXWjqKnuZNK_6bee_vm5utils12print_in_box
FN:5,_RNCNvNtCsgXWjqKnuZNK_6bee_vm5utils12print_in_box0B5_
FNDA:0,_RNvNtCsgXWjqKnuZNK_6bee_vm5utils12print_in_box
FNDA:0,_RNCNvNtCsgXWjqKnuZNK_6bee_vm5utils12print_in_box0B5_
FNF:2
FNH:0
DA:2,0
DA:3,0
DA:4,0
DA:5,0
DA:6,0
DA:7,0
DA:8,0
DA:11,0
DA:12,0
DA:13,0
DA:14,0
DA:15,0
DA:16,0
DA:17,0
DA:18,0
DA:19,0
DA:20,0
DA:21,0
DA:22,0
DA:25,0
DA:26,0
BRF:0
BRH:0
LF:22
LH:0
end_of_record